target datalayout = "e-m:e-p270:32:32-p271:32:32-p272:64:64-i64:64-i128:128-f80:128-n8:16:32:64-S128"
target triple = "x86_64-pc-linux-gnu"

%struct.ref_iterator_vtable = type { ptr, ptr, ptr }
%struct.ref_iterator = type { ptr, ptr, ptr, ptr, i32 }
%struct.merge_ref_iterator = type { %struct.ref_iterator, ptr, ptr, ptr, ptr, ptr }

@.str = private unnamed_addr constant [16 x i8] c"refs/iterator.c\00", align 1
@.str.2 = private unnamed_addr constant [46 x i8] c"peel called before advance for merge iterator\00", align 1

; Function Attrs: nounwind uwtable
define dso_local i32 @ref_iterator_peel(ptr noundef %0, ptr noundef %1) #0 {
  %3 = alloca ptr, align 8
  %4 = alloca ptr, align 8
  store ptr %0, ptr %3, align 8, !tbaa !4
  store ptr %1, ptr %4, align 8, !tbaa !17
  %5 = load ptr, ptr %3, align 8, !tbaa !4
  %6 = getelementptr inbounds nuw %struct.ref_iterator, ptr %5, i32 0, i32 0
  %7 = load ptr, ptr %6, align 8, !tbaa !9
  %8 = getelementptr inbounds nuw %struct.ref_iterator_vtable, ptr %7, i32 0, i32 1
  %9 = load ptr, ptr %8, align 8, !tbaa !18
  %10 = load ptr, ptr %3, align 8, !tbaa !4
  %11 = load ptr, ptr %4, align 8, !tbaa !17
  %12 = call i32 %9(ptr noundef %10, ptr noundef %11)
  ret i32 %12
}

; Function Attrs: nounwind uwtable
define internal i32 @merge_ref_iterator_peel(ptr noundef %0, ptr noundef %1) #0 {
  %3 = alloca ptr, align 8
  %4 = alloca ptr, align 8
  %5 = alloca ptr, align 8
  store ptr %0, ptr %3, align 8, !tbaa !4
  store ptr %1, ptr %4, align 8, !tbaa !17
  call void @llvm.lifetime.start.p0(i64 8, ptr %5) #6
  %6 = load ptr, ptr %3, align 8, !tbaa !4
  store ptr %6, ptr %5, align 8, !tbaa !29
  %7 = load ptr, ptr %5, align 8, !tbaa !29
  %8 = getelementptr inbounds nuw %struct.merge_ref_iterator, ptr %7, i32 0, i32 5
  %9 = load ptr, ptr %8, align 8, !tbaa !37
  %10 = icmp ne ptr %9, null
  br i1 %10, label %12, label %11

11:                                               ; preds = %2
  call void (ptr, i32, ptr, ...) @BUG_fl(ptr noundef @.str, i32 noundef 225, ptr noundef @.str.2) #8
  unreachable

12:                                               ; preds = %2
  %13 = load ptr, ptr %5, align 8, !tbaa !29
  %14 = getelementptr inbounds nuw %struct.merge_ref_iterator, ptr %13, i32 0, i32 5
  %15 = load ptr, ptr %14, align 8, !tbaa !37
  %16 = load ptr, ptr %15, align 8, !tbaa !4
  %17 = load ptr, ptr %4, align 8, !tbaa !17
  %18 = call i32 @ref_iterator_peel(ptr noundef %16, ptr noundef %17)
  call void @llvm.lifetime.end.p0(i64 8, ptr %5) #6
  ret i32 %18
}