; Function Attrs: nounwind uwtable
define internal i32 @merge_ref_iterator_peel(ptr noundef readonly captures(none) %0, ptr noundef %1) #0 {
  %3 = getelementptr inbounds nuw i8, ptr %0, i64 72
  %4 = load ptr, ptr %3, align 8, !tbaa !25
  %.not = icmp eq ptr %4, null
  br i1 %.not, label %5, label %6

5:                                                ; preds = %2
  tail call void (ptr, i32, ptr, ...) @BUG_fl(ptr noundef nonnull @.str, i32 noundef 225, ptr noundef nonnull @.str.2) #13
  unreachable

6:                                                ; preds = %2
  %7 = load ptr, ptr %4, align 8, !tbaa !31
  %8 = load ptr, ptr %7, align 8, !tbaa !4
  %9 = getelementptr inbounds nuw i8, ptr %8, i64 8
  %10 = load ptr, ptr %9, align 8, !tbaa !15
  %11 = tail call i32 %10(ptr noundef nonnull %7, ptr noundef %1) #11
  ret i32 %11
}